ccopy_reg
_reconstructor
p1
(cgraphObj
graph
p2
c__builtin__
object
p3
NtRp4
(dp5
S'startNode'
p6
I0
sS'gArray'
p7
(lp8
(lp9
NaI4
aI6
aI10
aI7
aa(lp10
I4
aNaI5
aI7
aI2
aa(lp11
I6
aI5
aNaI1
aI6
aa(lp12
I10
aI7
aI1
aNaI1
aa(lp13
I7
aI2
aI6
aI1
aNaasS'numNodes'
p14
I5
sS'dArray'
p15
(lp16
sS'cArray'
p17
(lp18
(I218
I50
tp19
a(I679
I338
tp20
a(I679
I50
tp21
a(I374
I581
tp22
a(I66
I365
tp23
asS'AlgorithmUsed'
p24
S"Prim's"
p25
sS'endNode'
p26
NsS'userNodes'
p27
(lp28
NaNaNaNaNasb.