(lp1
VJ:/My_Documents/Graph Program/Graph Program/Source Code/Network.grph
p2
aS'/home/hudson/ug/mjxs37/My_Documents/First year/Graph Program/Graph Program/Source Code/examples/TSPexample.grph'
p3
aS'/home/thomas/Desktop/Graph Program/Graph Program/Source Code/example.grph'
p4
a.